; Function Attrs: null_pointer_is_valid sspstrong uwtable
define void @prefs_set_effect_flags_by_name(ptr noundef readonly captures(address_is_null) %0, ptr noundef %1, i32 noundef %2) local_unnamed_addr #1 {
  %4 = alloca %struct.find_pref_arg_t, align 8
  call void @llvm.lifetime.start.p0(i64 24, ptr nonnull %4) #25
  %5 = icmp eq ptr %0, null
  br i1 %5, label %prefs_find_preference.exit.thread, label %6

6:                                                ; preds = %3
  %7 = getelementptr inbounds nuw i8, ptr %0, i64 40
  %8 = load ptr, ptr %7, align 8
  %9 = tail call ptr @g_list_find_custom(ptr noundef %8, ptr noundef %1, ptr noundef nonnull @preference_match)
  %10 = getelementptr inbounds nuw i8, ptr %4, i64 16
  store ptr null, ptr %10, align 8
  %11 = icmp eq ptr %9, null
  br i1 %11, label %12, label %prefs_find_preference.exit

12:                                               ; preds = %6
  store ptr null, ptr %4, align 8
  %13 = getelementptr inbounds nuw i8, ptr %0, i64 56
  %14 = load ptr, ptr %13, align 8
  %.not.i.i = icmp eq ptr %14, null
  br i1 %.not.i.i, label %prefs_find_preference.exit.thread, label %15

15:                                               ; preds = %12
  %16 = getelementptr inbounds nuw i8, ptr %4, i64 8
  store ptr %1, ptr %16, align 8
  %17 = call zeroext i1 @wmem_tree_foreach(ptr noundef nonnull %14, ptr noundef nonnull @module_find_pref_cb, ptr noundef nonnull %4)
  %.pr.i.i = load ptr, ptr %4, align 8
  %18 = icmp eq ptr %.pr.i.i, null
  br i1 %18, label %prefs_find_preference.exit.thread, label %prefs_find_preference.exit

prefs_find_preference.exit.thread:                ; preds = %3, %15, %12
  call void @llvm.lifetime.end.p0(i64 24, ptr nonnull %4) #25
  br label %prefs_set_effect_flags.exit

prefs_find_preference.exit:                       ; preds = %6, %15
  %.020.i.i = phi ptr [ %.pr.i.i, %15 ], [ %9, %6 ]
  %19 = load ptr, ptr %.020.i.i, align 8
  call void @llvm.lifetime.end.p0(i64 24, ptr nonnull %4) #25
  %.not.i = icmp eq ptr %19, null
  br i1 %.not.i, label %prefs_set_effect_flags.exit, label %20

20:                                               ; preds = %prefs_find_preference.exit
  %21 = icmp eq i32 %2, 0
  br i1 %21, label %22, label %24

22:                                               ; preds = %20
  %23 = load ptr, ptr %19, align 8
  call void (ptr, i32, ptr, i64, ptr, ptr, ...) @ws_log_fatal_full(ptr noundef nonnull @.str, i32 noundef 7, ptr noundef nonnull @.str.1, i64 noundef 6592, ptr noundef nonnull @__func__.prefs_set_effect_flags, ptr noundef nonnull @.str.49, ptr noundef %23) #26
  unreachable

24:                                               ; preds = %20
  %25 = getelementptr inbounds nuw i8, ptr %19, i64 32
  store i32 %2, ptr %25, align 8
  br label %prefs_set_effect_flags.exit

prefs_set_effect_flags.exit:                      ; preds = %prefs_find_preference.exit.thread, %prefs_find_preference.exit, %24
  ret void
}